---
triple:          'arm64-apple-darwin'
binary-path:     '/Users/latency/Desktop/Dev/C++/CPP2409/practice/week14/list'
relocations:
  - { offsetInCU: 0x30F7, offset: 0x30F7, size: 0x8, addend: 0x0, symName: __ZNSt3__124__put_character_sequenceB7v160006IcNS_11char_traitsIcEEEERNS_13basic_ostreamIT_T0_EES7_PKS4_m, symObjAddr: 0x167C, symBinAddr: 0x100002FC8, symSize: 0x1EC }
  - { offsetInCU: 0x62E7, offset: 0x62E7, size: 0x8, addend: 0x0, symName: __ZNSt3__1neB7v160006ERKNS_15__list_iteratorIiPvEES4_, symObjAddr: 0x400, symBinAddr: 0x100001D4C, symSize: 0x34 }
  - { offsetInCU: 0x6324, offset: 0x6324, size: 0x8, addend: 0x0, symName: __ZNSt3__1lsB7v160006INS_11char_traitsIcEEEERNS_13basic_ostreamIcT_EES6_PKc, symObjAddr: 0x460, symBinAddr: 0x100001DAC, symSize: 0x48 }
  - { offsetInCU: 0x636A, offset: 0x636A, size: 0x8, addend: 0x0, symName: __ZNSt3__14endlB7v160006IcNS_11char_traitsIcEEEERNS_13basic_ostreamIT_T0_EES7_, symObjAddr: 0x4F4, symBinAddr: 0x100001E40, symSize: 0x58 }
  - { offsetInCU: 0x63AA, offset: 0x63AA, size: 0x8, addend: 0x0, symName: __ZNSt3__118__debug_db_erase_cB7v160006INS_10__list_impIiNS_9allocatorIiEEEEEEvPT_, symObjAddr: 0x6CC, symBinAddr: 0x100002018, symSize: 0x10 }
  - { offsetInCU: 0x63DB, offset: 0x63DB, size: 0x8, addend: 0x0, symName: __ZNSt3__125__debug_db_invalidate_allB7v160006INS_10__list_impIiNS_9allocatorIiEEEEEEvPT_, symObjAddr: 0x858, symBinAddr: 0x1000021A4, symSize: 0x10 }
  - { offsetInCU: 0x643F, offset: 0x643F, size: 0x8, addend: 0x0, symName: __ZNSt3__119__libcpp_deallocateB7v160006EPvmm, symObjAddr: 0x9C8, symBinAddr: 0x100002314, symSize: 0x30 }
  - { offsetInCU: 0x6487, offset: 0x6487, size: 0x8, addend: 0x0, symName: __ZNSt3__127__do_deallocate_handle_sizeB7v160006IJEEEvPvmDpT_, symObjAddr: 0x9F8, symBinAddr: 0x100002344, symSize: 0x28 }
  - { offsetInCU: 0x64C5, offset: 0x64C5, size: 0x8, addend: 0x0, symName: __ZNSt3__124__libcpp_operator_deleteB7v160006IJPvEEEvDpT_, symObjAddr: 0xA20, symBinAddr: 0x10000236C, symSize: 0x24 }
  - { offsetInCU: 0x64FA, offset: 0x64FA, size: 0x8, addend: 0x0, symName: __ZNSt3__119__debug_db_insert_cB7v160006INS_4listIiNS_9allocatorIiEEEEEEvPT_, symObjAddr: 0xB5C, symBinAddr: 0x1000024A8, symSize: 0x10 }
  - { offsetInCU: 0x6549, offset: 0x6549, size: 0x8, addend: 0x0, symName: __ZNSt3__117__libcpp_allocateB7v160006Emm, symObjAddr: 0x115C, symBinAddr: 0x100002AA8, symSize: 0x28 }
  - { offsetInCU: 0x6586, offset: 0x6586, size: 0x8, addend: 0x0, symName: __ZNSt3__121__libcpp_operator_newB7v160006IJmEEEPvDpT_, symObjAddr: 0x119C, symBinAddr: 0x100002AE8, symSize: 0x24 }
  - { offsetInCU: 0x65BF, offset: 0x65BF, size: 0x8, addend: 0x0, symName: __ZNSt3__1eqB7v160006ERKNS_15__list_iteratorIiPvEES4_, symObjAddr: 0x164C, symBinAddr: 0x100002F98, symSize: 0x30 }
  - { offsetInCU: 0x65FC, offset: 0x65FC, size: 0x8, addend: 0x0, symName: __ZNSt3__116__pad_and_outputB7v160006IcNS_11char_traitsIcEEEENS_19ostreambuf_iteratorIT_T0_EES6_PKS4_S8_S8_RNS_8ios_baseES4_, symObjAddr: 0x18B8, symBinAddr: 0x100003204, symSize: 0x240 }
  - { offsetInCU: 0x66CB, offset: 0x66CB, size: 0x8, addend: 0x0, symName: __ZNSt3__119__debug_db_insert_cB7v160006INS_12basic_stringIcNS_11char_traitsIcEENS_9allocatorIcEEEEEEvPT_, symObjAddr: 0x1D6C, symBinAddr: 0x1000036B8, symSize: 0x10 }
  - { offsetInCU: 0x66FC, offset: 0x66FC, size: 0x8, addend: 0x0, symName: __ZNSt3__112__to_addressB7v160006IKcEEPT_S3_, symObjAddr: 0x1E38, symBinAddr: 0x100003784, symSize: 0x14 }
  - { offsetInCU: 0x6764, offset: 0x6764, size: 0x8, addend: 0x0, symName: __ZNSt3__19use_facetB7v160006INS_5ctypeIcEEEERKT_RKNS_6localeE, symObjAddr: 0x20B8, symBinAddr: 0x100003A04, symSize: 0x2C }
  - { offsetInCU: 0x6C33, offset: 0x6C33, size: 0x8, addend: 0x0, symName: __ZNSt3__118__constexpr_strlenB7v160006EPKc, symObjAddr: 0x2150, symBinAddr: 0x100003A9C, symSize: 0x24 }
  - { offsetInCU: 0x6D90, offset: 0x6D90, size: 0x8, addend: 0x0, symName: __ZSt28__throw_bad_array_new_lengthB7v160006v, symObjAddr: 0x1128, symBinAddr: 0x100002A74, symSize: 0x34 }
  - { offsetInCU: 0x9227, offset: 0x9227, size: 0x8, addend: 0x0, symName: _main, symObjAddr: 0x0, symBinAddr: 0x10000194C, symSize: 0x210 }
  - { offsetInCU: 0x94D7, offset: 0x94D7, size: 0x8, addend: 0x0, symName: __ZNSt3__14listIiNS_9allocatorIiEEEC1ESt16initializer_listIiE, symObjAddr: 0x210, symBinAddr: 0x100001B5C, symSize: 0x3C }
  - { offsetInCU: 0x9511, offset: 0x9511, size: 0x8, addend: 0x0, symName: __ZNSt3__14listIiNS_9allocatorIiEEE5beginB7v160006Ev, symObjAddr: 0x24C, symBinAddr: 0x100001B98, symSize: 0x2C }
  - { offsetInCU: 0x9537, offset: 0x9537, size: 0x8, addend: 0x0, symName: __ZNSt3__115__list_iteratorIiPvEppB7v160006Ei, symObjAddr: 0x278, symBinAddr: 0x100001BC4, symSize: 0x34 }
  - { offsetInCU: 0x9578, offset: 0x9578, size: 0x8, addend: 0x0, symName: __ZNSt3__14listIiNS_9allocatorIiEEE6insertENS_21__list_const_iteratorIiPvEEOi, symObjAddr: 0x2AC, symBinAddr: 0x100001BF8, symSize: 0xF4 }
  - { offsetInCU: 0x95EC, offset: 0x95EC, size: 0x8, addend: 0x0, symName: __ZNSt3__121__list_const_iteratorIiPvEC1B7v160006ERKNS_15__list_iteratorIiS1_EE, symObjAddr: 0x3A0, symBinAddr: 0x100001CEC, symSize: 0x34 }
  - { offsetInCU: 0x9625, offset: 0x9625, size: 0x8, addend: 0x0, symName: __ZNSt3__14listIiNS_9allocatorIiEEE3endB7v160006Ev, symObjAddr: 0x3D4, symBinAddr: 0x100001D20, symSize: 0x2C }
  - { offsetInCU: 0x964B, offset: 0x964B, size: 0x8, addend: 0x0, symName: __ZNKSt3__115__list_iteratorIiPvEdeB7v160006Ev, symObjAddr: 0x434, symBinAddr: 0x100001D80, symSize: 0x2C }
  - { offsetInCU: 0x9671, offset: 0x9671, size: 0x8, addend: 0x0, symName: __ZNSt3__115__list_iteratorIiPvEppB7v160006Ev, symObjAddr: 0x4A8, symBinAddr: 0x100001DF4, symSize: 0x20 }
  - { offsetInCU: 0x9697, offset: 0x9697, size: 0x8, addend: 0x0, symName: __ZNSt3__113basic_ostreamIcNS_11char_traitsIcEEElsB7v160006EPFRS3_S4_E, symObjAddr: 0x4C8, symBinAddr: 0x100001E14, symSize: 0x2C }
  - { offsetInCU: 0x96CB, offset: 0x96CB, size: 0x8, addend: 0x0, symName: __ZNSt3__14listIiNS_9allocatorIiEEED1Ev, symObjAddr: 0x54C, symBinAddr: 0x100001E98, symSize: 0x2C }
  - { offsetInCU: 0x96F8, offset: 0x96F8, size: 0x8, addend: 0x0, symName: __ZNSt3__14listIiNS_9allocatorIiEEED2Ev, symObjAddr: 0x578, symBinAddr: 0x100001EC4, symSize: 0x2C }
  - { offsetInCU: 0x9725, offset: 0x9725, size: 0x8, addend: 0x0, symName: __ZNSt3__110__list_impIiNS_9allocatorIiEEED2Ev, symObjAddr: 0x5A4, symBinAddr: 0x100001EF0, symSize: 0x3C }
  - { offsetInCU: 0x9750, offset: 0x9750, size: 0x8, addend: 0x0, symName: __ZNSt3__110__list_impIiNS_9allocatorIiEEE5clearEv, symObjAddr: 0x5E0, symBinAddr: 0x100001F2C, symSize: 0xEC }
  - { offsetInCU: 0x97C0, offset: 0x97C0, size: 0x8, addend: 0x0, symName: __ZNKSt3__110__list_impIiNS_9allocatorIiEEE5emptyB7v160006Ev, symObjAddr: 0x6E8, symBinAddr: 0x100002034, symSize: 0x34 }
  - { offsetInCU: 0x97E6, offset: 0x97E6, size: 0x8, addend: 0x0, symName: __ZNSt3__110__list_impIiNS_9allocatorIiEEE12__node_allocB7v160006Ev, symObjAddr: 0x71C, symBinAddr: 0x100002068, symSize: 0x28 }
  - { offsetInCU: 0x980C, offset: 0x980C, size: 0x8, addend: 0x0, symName: __ZNKSt3__110__list_impIiNS_9allocatorIiEEE13__end_as_linkB7v160006Ev, symObjAddr: 0x744, symBinAddr: 0x100002090, symSize: 0x44 }
  - { offsetInCU: 0x9832, offset: 0x9832, size: 0x8, addend: 0x0, symName: __ZNSt3__110__list_impIiNS_9allocatorIiEEE14__unlink_nodesEPNS_16__list_node_baseIiPvEES7_, symObjAddr: 0x788, symBinAddr: 0x1000020D4, symSize: 0x3C }
  - { offsetInCU: 0x9867, offset: 0x9867, size: 0x8, addend: 0x0, symName: __ZNSt3__110__list_impIiNS_9allocatorIiEEE4__szB7v160006Ev, symObjAddr: 0x7C4, symBinAddr: 0x100002110, symSize: 0x28 }
  - { offsetInCU: 0x988D, offset: 0x988D, size: 0x8, addend: 0x0, symName: __ZNSt3__116__list_node_baseIiPvE9__as_nodeB7v160006Ev, symObjAddr: 0x7EC, symBinAddr: 0x100002138, symSize: 0x24 }
  - { offsetInCU: 0x98B3, offset: 0x98B3, size: 0x8, addend: 0x0, symName: __ZNSt3__116allocator_traitsINS_9allocatorINS_11__list_nodeIiPvEEEEE7destroyB7v160006IivvEEvRS5_PT_, symObjAddr: 0x810, symBinAddr: 0x10000215C, symSize: 0x14 }
  - { offsetInCU: 0x98EE, offset: 0x98EE, size: 0x8, addend: 0x0, symName: __ZNSt3__116allocator_traitsINS_9allocatorINS_11__list_nodeIiPvEEEEE10deallocateB7v160006ERS5_PS4_m, symObjAddr: 0x824, symBinAddr: 0x100002170, symSize: 0x34 }
  - { offsetInCU: 0x9930, offset: 0x9930, size: 0x8, addend: 0x0, symName: __ZNKSt3__110__list_impIiNS_9allocatorIiEEE4__szB7v160006Ev, symObjAddr: 0x868, symBinAddr: 0x1000021B4, symSize: 0x28 }
  - { offsetInCU: 0x9956, offset: 0x9956, size: 0x8, addend: 0x0, symName: __ZNKSt3__117__compressed_pairImNS_9allocatorINS_11__list_nodeIiPvEEEEE5firstB7v160006Ev, symObjAddr: 0x890, symBinAddr: 0x1000021DC, symSize: 0x24 }
  - { offsetInCU: 0x997C, offset: 0x997C, size: 0x8, addend: 0x0, symName: __ZNKSt3__122__compressed_pair_elemImLi0ELb0EE5__getB7v160006Ev, symObjAddr: 0x8B4, symBinAddr: 0x100002200, symSize: 0x14 }
  - { offsetInCU: 0x99A2, offset: 0x99A2, size: 0x8, addend: 0x0, symName: __ZNSt3__117__compressed_pairImNS_9allocatorINS_11__list_nodeIiPvEEEEE6secondB7v160006Ev, symObjAddr: 0x8C8, symBinAddr: 0x100002214, symSize: 0x24 }
  - { offsetInCU: 0x99C8, offset: 0x99C8, size: 0x8, addend: 0x0, symName: __ZNSt3__122__compressed_pair_elemINS_9allocatorINS_11__list_nodeIiPvEEEELi1ELb1EE5__getB7v160006Ev, symObjAddr: 0x8EC, symBinAddr: 0x100002238, symSize: 0x14 }
  - { offsetInCU: 0x99EE, offset: 0x99EE, size: 0x8, addend: 0x0, symName: __ZNSt3__126__list_node_pointer_traitsIiPvE26__unsafe_link_pointer_castB7v160006EPNS_16__list_node_baseIiS1_EE, symObjAddr: 0x900, symBinAddr: 0x10000224C, symSize: 0x14 }
  - { offsetInCU: 0x9A12, offset: 0x9A12, size: 0x8, addend: 0x0, symName: __ZNSt3__116__list_node_baseIiPvE6__selfB7v160006Ev, symObjAddr: 0x914, symBinAddr: 0x100002260, symSize: 0x24 }
  - { offsetInCU: 0x9A3D, offset: 0x9A3D, size: 0x8, addend: 0x0, symName: __ZNSt3__114pointer_traitsIPNS_16__list_node_baseIiPvEEE10pointer_toB7v160006ERS3_, symObjAddr: 0x938, symBinAddr: 0x100002284, symSize: 0x14 }
  - { offsetInCU: 0x9A60, offset: 0x9A60, size: 0x8, addend: 0x0, symName: __ZNSt3__117__compressed_pairImNS_9allocatorINS_11__list_nodeIiPvEEEEE5firstB7v160006Ev, symObjAddr: 0x94C, symBinAddr: 0x100002298, symSize: 0x24 }
  - { offsetInCU: 0x9A86, offset: 0x9A86, size: 0x8, addend: 0x0, symName: __ZNSt3__122__compressed_pair_elemImLi0ELb0EE5__getB7v160006Ev, symObjAddr: 0x970, symBinAddr: 0x1000022BC, symSize: 0x14 }
  - { offsetInCU: 0x9AAC, offset: 0x9AAC, size: 0x8, addend: 0x0, symName: __ZNSt3__19allocatorINS_11__list_nodeIiPvEEE10deallocateB7v160006EPS3_m, symObjAddr: 0x984, symBinAddr: 0x1000022D0, symSize: 0x44 }
  - { offsetInCU: 0x9AEE, offset: 0x9AEE, size: 0x8, addend: 0x0, symName: __ZNSt3__14listIiNS_9allocatorIiEEEC2ESt16initializer_listIiE, symObjAddr: 0xA44, symBinAddr: 0x100002390, symSize: 0xC8 }
  - { offsetInCU: 0x9B54, offset: 0x9B54, size: 0x8, addend: 0x0, symName: __ZNSt3__110__list_impIiNS_9allocatorIiEEEC2Ev, symObjAddr: 0xB0C, symBinAddr: 0x100002458, symSize: 0x50 }
  - { offsetInCU: 0x9B7F, offset: 0x9B7F, size: 0x8, addend: 0x0, symName: __ZNKSt16initializer_listIiE5beginB7v160006Ev, symObjAddr: 0xB6C, symBinAddr: 0x1000024B8, symSize: 0x18 }
  - { offsetInCU: 0x9BA5, offset: 0x9BA5, size: 0x8, addend: 0x0, symName: __ZNKSt16initializer_listIiE3endB7v160006Ev, symObjAddr: 0xB84, symBinAddr: 0x1000024D0, symSize: 0x20 }
  - { offsetInCU: 0x9BCB, offset: 0x9BCB, size: 0x8, addend: 0x0, symName: __ZNSt3__14listIiNS_9allocatorIiEEE9push_backERKi, symObjAddr: 0xBA4, symBinAddr: 0x1000024F0, symSize: 0xF4 }
  - { offsetInCU: 0x9C20, offset: 0x9C20, size: 0x8, addend: 0x0, symName: __ZNSt3__116__list_node_baseIiPvEC1B7v160006Ev, symObjAddr: 0xC98, symBinAddr: 0x1000025E4, symSize: 0x2C }
  - { offsetInCU: 0x9C54, offset: 0x9C54, size: 0x8, addend: 0x0, symName: __ZNSt3__117__compressed_pairImNS_9allocatorINS_11__list_nodeIiPvEEEEEC1B7v160006IiNS_18__default_init_tagEEEOT_OT0_, symObjAddr: 0xCC4, symBinAddr: 0x100002610, symSize: 0x3C }
  - { offsetInCU: 0x9CAC, offset: 0x9CAC, size: 0x8, addend: 0x0, symName: __ZNSt3__116__list_node_baseIiPvEC2B7v160006Ev, symObjAddr: 0xD00, symBinAddr: 0x10000264C, symSize: 0x4C }
  - { offsetInCU: 0x9CD6, offset: 0x9CD6, size: 0x8, addend: 0x0, symName: __ZNSt3__117__compressed_pairImNS_9allocatorINS_11__list_nodeIiPvEEEEEC2B7v160006IiNS_18__default_init_tagEEEOT_OT0_, symObjAddr: 0xD4C, symBinAddr: 0x100002698, symSize: 0x40 }
  - { offsetInCU: 0x9D2E, offset: 0x9D2E, size: 0x8, addend: 0x0, symName: __ZNSt3__122__compressed_pair_elemImLi0ELb0EEC2B7v160006IivEEOT_, symObjAddr: 0xD8C, symBinAddr: 0x1000026D8, symSize: 0x24 }
  - { offsetInCU: 0x9D70, offset: 0x9D70, size: 0x8, addend: 0x0, symName: __ZNSt3__122__compressed_pair_elemINS_9allocatorINS_11__list_nodeIiPvEEEELi1ELb1EEC2B7v160006ENS_18__default_init_tagE, symObjAddr: 0xDB0, symBinAddr: 0x1000026FC, symSize: 0x2C }
  - { offsetInCU: 0x9DA5, offset: 0x9DA5, size: 0x8, addend: 0x0, symName: __ZNSt3__19allocatorINS_11__list_nodeIiPvEEEC2B7v160006Ev, symObjAddr: 0xDDC, symBinAddr: 0x100002728, symSize: 0x2C }
  - { offsetInCU: 0x9DCF, offset: 0x9DCF, size: 0x8, addend: 0x0, symName: __ZNSt3__116__non_trivial_ifILb1ENS_9allocatorINS_11__list_nodeIiPvEEEEEC2B7v160006Ev, symObjAddr: 0xE08, symBinAddr: 0x100002754, symSize: 0x14 }
  - { offsetInCU: 0x9DF9, offset: 0x9DF9, size: 0x8, addend: 0x0, symName: __ZNSt3__14listIiNS_9allocatorIiEEE15__allocate_nodeB7v160006ERNS1_INS_11__list_nodeIiPvEEEE, symObjAddr: 0xE1C, symBinAddr: 0x100002768, symSize: 0x70 }
  - { offsetInCU: 0x9E3D, offset: 0x9E3D, size: 0x8, addend: 0x0, symName: __ZNSt3__116allocator_traitsINS_9allocatorINS_11__list_nodeIiPvEEEEE9constructB7v160006IiJRKiEvEEvRS5_PT_DpOT0_, symObjAddr: 0xE8C, symBinAddr: 0x1000027D8, symSize: 0x34 }
  - { offsetInCU: 0x9E94, offset: 0x9E94, size: 0x8, addend: 0x0, symName: __ZNKSt3__110unique_ptrINS_11__list_nodeIiPvEENS_22__allocator_destructorINS_9allocatorIS3_EEEEEptB7v160006Ev, symObjAddr: 0xEC0, symBinAddr: 0x10000280C, symSize: 0x28 }
  - { offsetInCU: 0x9EBA, offset: 0x9EBA, size: 0x8, addend: 0x0, symName: __ZNSt3__14listIiNS_9allocatorIiEEE20__link_nodes_at_backEPNS_16__list_node_baseIiPvEES7_, symObjAddr: 0xEE8, symBinAddr: 0x100002834, symSize: 0x60 }
  - { offsetInCU: 0x9F00, offset: 0x9F00, size: 0x8, addend: 0x0, symName: __ZNKSt3__110unique_ptrINS_11__list_nodeIiPvEENS_22__allocator_destructorINS_9allocatorIS3_EEEEE3getB7v160006Ev, symObjAddr: 0xF48, symBinAddr: 0x100002894, symSize: 0x28 }
  - { offsetInCU: 0x9F26, offset: 0x9F26, size: 0x8, addend: 0x0, symName: __ZNSt3__111__list_nodeIiPvE9__as_linkB7v160006Ev, symObjAddr: 0xF70, symBinAddr: 0x1000028BC, symSize: 0x24 }
  - { offsetInCU: 0x9F4C, offset: 0x9F4C, size: 0x8, addend: 0x0, symName: __ZNSt3__110unique_ptrINS_11__list_nodeIiPvEENS_22__allocator_destructorINS_9allocatorIS3_EEEEE7releaseB7v160006Ev, symObjAddr: 0xF94, symBinAddr: 0x1000028E0, symSize: 0x44 }
  - { offsetInCU: 0x9F81, offset: 0x9F81, size: 0x8, addend: 0x0, symName: __ZNSt3__110unique_ptrINS_11__list_nodeIiPvEENS_22__allocator_destructorINS_9allocatorIS3_EEEEED1B7v160006Ev, symObjAddr: 0xFD8, symBinAddr: 0x100002924, symSize: 0x2C }
  - { offsetInCU: 0x9FAB, offset: 0x9FAB, size: 0x8, addend: 0x0, symName: __ZNSt3__116allocator_traitsINS_9allocatorINS_11__list_nodeIiPvEEEEE8allocateB7v160006ERS5_m, symObjAddr: 0x1004, symBinAddr: 0x100002950, symSize: 0x2C }
  - { offsetInCU: 0x9FDE, offset: 0x9FDE, size: 0x8, addend: 0x0, symName: __ZNSt3__122__allocator_destructorINS_9allocatorINS_11__list_nodeIiPvEEEEEC1B7v160006ERS5_m, symObjAddr: 0x1030, symBinAddr: 0x10000297C, symSize: 0x3C }
  - { offsetInCU: 0xA029, offset: 0xA029, size: 0x8, addend: 0x0, symName: __ZNSt3__110unique_ptrINS_11__list_nodeIiPvEENS_22__allocator_destructorINS_9allocatorIS3_EEEEEC1B7v160006ILb1EvEEPS3_NS_16__dependent_typeINS_27__unique_ptr_deleter_sfinaeIS7_EEXT_EE20__good_rval_ref_typeE, symObjAddr: 0x106C, symBinAddr: 0x1000029B8, symSize: 0x3C }
  - { offsetInCU: 0xA07A, offset: 0xA07A, size: 0x8, addend: 0x0, symName: __ZNSt3__19allocatorINS_11__list_nodeIiPvEEE8allocateB7v160006Em, symObjAddr: 0x10A8, symBinAddr: 0x1000029F4, symSize: 0x5C }
  - { offsetInCU: 0xA0B8, offset: 0xA0B8, size: 0x8, addend: 0x0, symName: __ZNSt3__116allocator_traitsINS_9allocatorINS_11__list_nodeIiPvEEEEE8max_sizeB7v160006IS5_vEEmRKS5_, symObjAddr: 0x1104, symBinAddr: 0x100002A50, symSize: 0x24 }
  - { offsetInCU: 0xA0E6, offset: 0xA0E6, size: 0x8, addend: 0x0, symName: __ZNKSt3__19allocatorINS_11__list_nodeIiPvEEE8max_sizeB7v160006Ev, symObjAddr: 0x1184, symBinAddr: 0x100002AD0, symSize: 0x18 }
  - { offsetInCU: 0xA10C, offset: 0xA10C, size: 0x8, addend: 0x0, symName: __ZNSt3__122__allocator_destructorINS_9allocatorINS_11__list_nodeIiPvEEEEEC2B7v160006ERS5_m, symObjAddr: 0x11C0, symBinAddr: 0x100002B0C, symSize: 0x2C }
  - { offsetInCU: 0xA152, offset: 0xA152, size: 0x8, addend: 0x0, symName: __ZNSt3__110unique_ptrINS_11__list_nodeIiPvEENS_22__allocator_destructorINS_9allocatorIS3_EEEEEC2B7v160006ILb1EvEEPS3_NS_16__dependent_typeINS_27__unique_ptr_deleter_sfinaeIS7_EEXT_EE20__good_rval_ref_typeE, symObjAddr: 0x11EC, symBinAddr: 0x100002B38, symSize: 0x48 }
  - { offsetInCU: 0xA1A3, offset: 0xA1A3, size: 0x8, addend: 0x0, symName: __ZNSt3__117__compressed_pairIPNS_11__list_nodeIiPvEENS_22__allocator_destructorINS_9allocatorIS3_EEEEEC1B7v160006IRS4_S8_EEOT_OT0_, symObjAddr: 0x1234, symBinAddr: 0x100002B80, symSize: 0x3C }
  - { offsetInCU: 0xA1FB, offset: 0xA1FB, size: 0x8, addend: 0x0, symName: __ZNSt3__117__compressed_pairIPNS_11__list_nodeIiPvEENS_22__allocator_destructorINS_9allocatorIS3_EEEEEC2B7v160006IRS4_S8_EEOT_OT0_, symObjAddr: 0x1270, symBinAddr: 0x100002BBC, symSize: 0x48 }
  - { offsetInCU: 0xA253, offset: 0xA253, size: 0x8, addend: 0x0, symName: __ZNSt3__122__compressed_pair_elemIPNS_11__list_nodeIiPvEELi0ELb0EEC2B7v160006IRS4_vEEOT_, symObjAddr: 0x12B8, symBinAddr: 0x100002C04, symSize: 0x24 }
  - { offsetInCU: 0xA295, offset: 0xA295, size: 0x8, addend: 0x0, symName: __ZNSt3__122__compressed_pair_elemINS_22__allocator_destructorINS_9allocatorINS_11__list_nodeIiPvEEEEEELi1ELb0EEC2B7v160006IS7_vEEOT_, symObjAddr: 0x12DC, symBinAddr: 0x100002C28, symSize: 0x24 }
  - { offsetInCU: 0xA2D7, offset: 0xA2D7, size: 0x8, addend: 0x0, symName: __ZNSt3__19allocatorINS_11__list_nodeIiPvEEE9constructB7v160006IiJRKiEEEvPT_DpOT0_, symObjAddr: 0x1300, symBinAddr: 0x100002C4C, symSize: 0x28 }
  - { offsetInCU: 0xA32D, offset: 0xA32D, size: 0x8, addend: 0x0, symName: __ZNKSt3__117__compressed_pairIPNS_11__list_nodeIiPvEENS_22__allocator_destructorINS_9allocatorIS3_EEEEE5firstB7v160006Ev, symObjAddr: 0x1328, symBinAddr: 0x100002C74, symSize: 0x24 }
  - { offsetInCU: 0xA353, offset: 0xA353, size: 0x8, addend: 0x0, symName: __ZNKSt3__122__compressed_pair_elemIPNS_11__list_nodeIiPvEELi0ELb0EE5__getB7v160006Ev, symObjAddr: 0x134C, symBinAddr: 0x100002C98, symSize: 0x14 }
  - { offsetInCU: 0xA379, offset: 0xA379, size: 0x8, addend: 0x0, symName: __ZNSt3__117__compressed_pairIPNS_11__list_nodeIiPvEENS_22__allocator_destructorINS_9allocatorIS3_EEEEE5firstB7v160006Ev, symObjAddr: 0x1360, symBinAddr: 0x100002CAC, symSize: 0x24 }
  - { offsetInCU: 0xA39F, offset: 0xA39F, size: 0x8, addend: 0x0, symName: __ZNSt3__122__compressed_pair_elemIPNS_11__list_nodeIiPvEELi0ELb0EE5__getB7v160006Ev, symObjAddr: 0x1384, symBinAddr: 0x100002CD0, symSize: 0x14 }
  - { offsetInCU: 0xA3C5, offset: 0xA3C5, size: 0x8, addend: 0x0, symName: __ZNSt3__110unique_ptrINS_11__list_nodeIiPvEENS_22__allocator_destructorINS_9allocatorIS3_EEEEED2B7v160006Ev, symObjAddr: 0x1398, symBinAddr: 0x100002CE4, symSize: 0x30 }
  - { offsetInCU: 0xA3EF, offset: 0xA3EF, size: 0x8, addend: 0x0, symName: __ZNSt3__110unique_ptrINS_11__list_nodeIiPvEENS_22__allocator_destructorINS_9allocatorIS3_EEEEE5resetB7v160006EPS3_, symObjAddr: 0x13C8, symBinAddr: 0x100002D14, symSize: 0x78 }
  - { offsetInCU: 0xA433, offset: 0xA433, size: 0x8, addend: 0x0, symName: __ZNSt3__117__compressed_pairIPNS_11__list_nodeIiPvEENS_22__allocator_destructorINS_9allocatorIS3_EEEEE6secondB7v160006Ev, symObjAddr: 0x1440, symBinAddr: 0x100002D8C, symSize: 0x28 }
  - { offsetInCU: 0xA459, offset: 0xA459, size: 0x8, addend: 0x0, symName: __ZNSt3__122__allocator_destructorINS_9allocatorINS_11__list_nodeIiPvEEEEEclB7v160006EPS4_, symObjAddr: 0x1468, symBinAddr: 0x100002DB4, symSize: 0x34 }
  - { offsetInCU: 0xA48D, offset: 0xA48D, size: 0x8, addend: 0x0, symName: __ZNSt3__122__compressed_pair_elemINS_22__allocator_destructorINS_9allocatorINS_11__list_nodeIiPvEEEEEELi1ELb0EE5__getB7v160006Ev, symObjAddr: 0x149C, symBinAddr: 0x100002DE8, symSize: 0x14 }
  - { offsetInCU: 0xA4B3, offset: 0xA4B3, size: 0x8, addend: 0x0, symName: __ZNSt3__110__list_impIiNS_9allocatorIiEEE5beginB7v160006Ev, symObjAddr: 0x14B0, symBinAddr: 0x100002DFC, symSize: 0x30 }
  - { offsetInCU: 0xA4D9, offset: 0xA4D9, size: 0x8, addend: 0x0, symName: __ZNSt3__115__list_iteratorIiPvEC1B7v160006EPNS_16__list_node_baseIiS1_EEPKv, symObjAddr: 0x14E0, symBinAddr: 0x100002E2C, symSize: 0x3C }
  - { offsetInCU: 0xA521, offset: 0xA521, size: 0x8, addend: 0x0, symName: __ZNSt3__115__list_iteratorIiPvEC2B7v160006EPNS_16__list_node_baseIiS1_EEPKv, symObjAddr: 0x151C, symBinAddr: 0x100002E68, symSize: 0x24 }
  - { offsetInCU: 0xA569, offset: 0xA569, size: 0x8, addend: 0x0, symName: __ZNSt3__116allocator_traitsINS_9allocatorINS_11__list_nodeIiPvEEEEE9constructB7v160006IiJiEvEEvRS5_PT_DpOT0_, symObjAddr: 0x1540, symBinAddr: 0x100002E8C, symSize: 0x34 }
  - { offsetInCU: 0xA5C0, offset: 0xA5C0, size: 0x8, addend: 0x0, symName: __ZNSt3__14listIiNS_9allocatorIiEEE12__link_nodesEPNS_16__list_node_baseIiPvEES7_S7_, symObjAddr: 0x1574, symBinAddr: 0x100002EC0, symSize: 0x50 }
  - { offsetInCU: 0xA604, offset: 0xA604, size: 0x8, addend: 0x0, symName: __ZNSt3__19allocatorINS_11__list_nodeIiPvEEE9constructB7v160006IiJiEEEvPT_DpOT0_, symObjAddr: 0x15C4, symBinAddr: 0x100002F10, symSize: 0x28 }
  - { offsetInCU: 0xA65A, offset: 0xA65A, size: 0x8, addend: 0x0, symName: __ZNSt3__121__list_const_iteratorIiPvEC2B7v160006ERKNS_15__list_iteratorIiS1_EE, symObjAddr: 0x15EC, symBinAddr: 0x100002F38, symSize: 0x24 }
  - { offsetInCU: 0xA693, offset: 0xA693, size: 0x8, addend: 0x0, symName: __ZNSt3__110__list_impIiNS_9allocatorIiEEE3endB7v160006Ev, symObjAddr: 0x1610, symBinAddr: 0x100002F5C, symSize: 0x3C }
  - { offsetInCU: 0xA6B9, offset: 0xA6B9, size: 0x8, addend: 0x0, symName: __ZNSt3__111char_traitsIcE6lengthEPKc, symObjAddr: 0x1868, symBinAddr: 0x1000031B4, symSize: 0x34 }
  - { offsetInCU: 0xA6FA, offset: 0xA6FA, size: 0x8, addend: 0x0, symName: __ZNKSt3__113basic_ostreamIcNS_11char_traitsIcEEE6sentrycvbB7v160006Ev, symObjAddr: 0x189C, symBinAddr: 0x1000031E8, symSize: 0x1C }
  - { offsetInCU: 0xA720, offset: 0xA720, size: 0x8, addend: 0x0, symName: __ZNSt3__119ostreambuf_iteratorIcNS_11char_traitsIcEEEC1B7v160006ERNS_13basic_ostreamIcS2_EE, symObjAddr: 0x1AF8, symBinAddr: 0x100003444, symSize: 0x34 }
  - { offsetInCU: 0xA758, offset: 0xA758, size: 0x8, addend: 0x0, symName: __ZNKSt3__18ios_base5flagsB7v160006Ev, symObjAddr: 0x1B2C, symBinAddr: 0x100003478, symSize: 0x18 }
  - { offsetInCU: 0xA780, offset: 0xA780, size: 0x8, addend: 0x0, symName: __ZNKSt3__19basic_iosIcNS_11char_traitsIcEEE4fillB7v160006Ev, symObjAddr: 0x1B44, symBinAddr: 0x100003490, symSize: 0x64 }
  - { offsetInCU: 0xA7A8, offset: 0xA7A8, size: 0x8, addend: 0x0, symName: __ZNKSt3__119ostreambuf_iteratorIcNS_11char_traitsIcEEE6failedB7v160006Ev, symObjAddr: 0x1BA8, symBinAddr: 0x1000034F4, symSize: 0x24 }
  - { offsetInCU: 0xA7CE, offset: 0xA7CE, size: 0x8, addend: 0x0, symName: __ZNSt3__19basic_iosIcNS_11char_traitsIcEEE8setstateB7v160006Ej, symObjAddr: 0x1BCC, symBinAddr: 0x100003518, symSize: 0x2C }
  - { offsetInCU: 0xA803, offset: 0xA803, size: 0x8, addend: 0x0, symName: __ZNKSt3__18ios_base5widthB7v160006Ev, symObjAddr: 0x1BF8, symBinAddr: 0x100003544, symSize: 0x18 }
  - { offsetInCU: 0xA82B, offset: 0xA82B, size: 0x8, addend: 0x0, symName: __ZNSt3__115basic_streambufIcNS_11char_traitsIcEEE5sputnB7v160006EPKcl, symObjAddr: 0x1C10, symBinAddr: 0x10000355C, symSize: 0x3C }
  - { offsetInCU: 0xA86D, offset: 0xA86D, size: 0x8, addend: 0x0, symName: __ZNSt3__112basic_stringIcNS_11char_traitsIcEENS_9allocatorIcEEEC1B7v160006Emc, symObjAddr: 0x1C4C, symBinAddr: 0x100003598, symSize: 0x3C }
  - { offsetInCU: 0xA8B5, offset: 0xA8B5, size: 0x8, addend: 0x0, symName: __ZNKSt3__112basic_stringIcNS_11char_traitsIcEENS_9allocatorIcEEE4dataB7v160006Ev, symObjAddr: 0x1C88, symBinAddr: 0x1000035D4, symSize: 0x28 }
  - { offsetInCU: 0xA8DB, offset: 0xA8DB, size: 0x8, addend: 0x0, symName: __ZNSt3__18ios_base5widthB7v160006El, symObjAddr: 0x1CB0, symBinAddr: 0x1000035FC, symSize: 0x2C }
  - { offsetInCU: 0xA921, offset: 0xA921, size: 0x8, addend: 0x0, symName: __ZNSt3__112basic_stringIcNS_11char_traitsIcEENS_9allocatorIcEEEC2B7v160006Emc, symObjAddr: 0x1CDC, symBinAddr: 0x100003628, symSize: 0x54 }
  - { offsetInCU: 0xA969, offset: 0xA969, size: 0x8, addend: 0x0, symName: __ZNSt3__117__compressed_pairINS_12basic_stringIcNS_11char_traitsIcEENS_9allocatorIcEEE5__repES5_EC1B7v160006INS_18__default_init_tagESA_EEOT_OT0_, symObjAddr: 0x1D30, symBinAddr: 0x10000367C, symSize: 0x3C }
  - { offsetInCU: 0xA9C1, offset: 0xA9C1, size: 0x8, addend: 0x0, symName: __ZNSt3__117__compressed_pairINS_12basic_stringIcNS_11char_traitsIcEENS_9allocatorIcEEE5__repES5_EC2B7v160006INS_18__default_init_tagESA_EEOT_OT0_, symObjAddr: 0x1D7C, symBinAddr: 0x1000036C8, symSize: 0x3C }
  - { offsetInCU: 0xAA19, offset: 0xAA19, size: 0x8, addend: 0x0, symName: __ZNSt3__122__compressed_pair_elemINS_12basic_stringIcNS_11char_traitsIcEENS_9allocatorIcEEE5__repELi0ELb0EEC2B7v160006ENS_18__default_init_tagE, symObjAddr: 0x1DB8, symBinAddr: 0x100003704, symSize: 0x14 }
  - { offsetInCU: 0xAA4E, offset: 0xAA4E, size: 0x8, addend: 0x0, symName: __ZNSt3__122__compressed_pair_elemINS_9allocatorIcEELi1ELb1EEC2B7v160006ENS_18__default_init_tagE, symObjAddr: 0x1DCC, symBinAddr: 0x100003718, symSize: 0x2C }
  - { offsetInCU: 0xAA83, offset: 0xAA83, size: 0x8, addend: 0x0, symName: __ZNSt3__19allocatorIcEC2B7v160006Ev, symObjAddr: 0x1DF8, symBinAddr: 0x100003744, symSize: 0x2C }
  - { offsetInCU: 0xAAAD, offset: 0xAAAD, size: 0x8, addend: 0x0, symName: __ZNSt3__116__non_trivial_ifILb1ENS_9allocatorIcEEEC2B7v160006Ev, symObjAddr: 0x1E24, symBinAddr: 0x100003770, symSize: 0x14 }
  - { offsetInCU: 0xAAD7, offset: 0xAAD7, size: 0x8, addend: 0x0, symName: __ZNKSt3__112basic_stringIcNS_11char_traitsIcEENS_9allocatorIcEEE13__get_pointerB7v160006Ev, symObjAddr: 0x1E4C, symBinAddr: 0x100003798, symSize: 0x54 }
  - { offsetInCU: 0xAAFD, offset: 0xAAFD, size: 0x8, addend: 0x0, symName: __ZNKSt3__112basic_stringIcNS_11char_traitsIcEENS_9allocatorIcEEE9__is_longB7v160006Ev, symObjAddr: 0x1EA0, symBinAddr: 0x1000037EC, symSize: 0x38 }
  - { offsetInCU: 0xAB23, offset: 0xAB23, size: 0x8, addend: 0x0, symName: __ZNKSt3__112basic_stringIcNS_11char_traitsIcEENS_9allocatorIcEEE18__get_long_pointerB7v160006Ev, symObjAddr: 0x1ED8, symBinAddr: 0x100003824, symSize: 0x28 }
  - { offsetInCU: 0xAB49, offset: 0xAB49, size: 0x8, addend: 0x0, symName: __ZNKSt3__112basic_stringIcNS_11char_traitsIcEENS_9allocatorIcEEE19__get_short_pointerB7v160006Ev, symObjAddr: 0x1F00, symBinAddr: 0x10000384C, symSize: 0x28 }
  - { offsetInCU: 0xAB6F, offset: 0xAB6F, size: 0x8, addend: 0x0, symName: __ZNKSt3__117__compressed_pairINS_12basic_stringIcNS_11char_traitsIcEENS_9allocatorIcEEE5__repES5_E5firstB7v160006Ev, symObjAddr: 0x1F28, symBinAddr: 0x100003874, symSize: 0x24 }
  - { offsetInCU: 0xAB95, offset: 0xAB95, size: 0x8, addend: 0x0, symName: __ZNKSt3__122__compressed_pair_elemINS_12basic_stringIcNS_11char_traitsIcEENS_9allocatorIcEEE5__repELi0ELb0EE5__getB7v160006Ev, symObjAddr: 0x1F4C, symBinAddr: 0x100003898, symSize: 0x14 }
  - { offsetInCU: 0xABBB, offset: 0xABBB, size: 0x8, addend: 0x0, symName: __ZNSt3__114pointer_traitsIPKcE10pointer_toB7v160006ERS1_, symObjAddr: 0x1F60, symBinAddr: 0x1000038AC, symSize: 0x14 }
  - { offsetInCU: 0xABDE, offset: 0xABDE, size: 0x8, addend: 0x0, symName: __ZNSt3__119ostreambuf_iteratorIcNS_11char_traitsIcEEEC2B7v160006ERNS_13basic_ostreamIcS2_EE, symObjAddr: 0x1F74, symBinAddr: 0x1000038C0, symSize: 0x54 }
  - { offsetInCU: 0xAC16, offset: 0xAC16, size: 0x8, addend: 0x0, symName: __ZNKSt3__19basic_iosIcNS_11char_traitsIcEEE5rdbufB7v160006Ev, symObjAddr: 0x1FC8, symBinAddr: 0x100003914, symSize: 0x24 }
  - { offsetInCU: 0xAC3E, offset: 0xAC3E, size: 0x8, addend: 0x0, symName: __ZNKSt3__18ios_base5rdbufB7v160006Ev, symObjAddr: 0x1FEC, symBinAddr: 0x100003938, symSize: 0x18 }
  - { offsetInCU: 0xAC64, offset: 0xAC64, size: 0x8, addend: 0x0, symName: __ZNSt3__111char_traitsIcE11eq_int_typeEii, symObjAddr: 0x2004, symBinAddr: 0x100003950, symSize: 0x28 }
  - { offsetInCU: 0xAC95, offset: 0xAC95, size: 0x8, addend: 0x0, symName: __ZNSt3__111char_traitsIcE3eofEv, symObjAddr: 0x202C, symBinAddr: 0x100003978, symSize: 0x8 }
  - { offsetInCU: 0xACA9, offset: 0xACA9, size: 0x8, addend: 0x0, symName: __ZNKSt3__19basic_iosIcNS_11char_traitsIcEEE5widenB7v160006Ec, symObjAddr: 0x2034, symBinAddr: 0x100003980, symSize: 0x84 }
  - { offsetInCU: 0xAD17, offset: 0xAD17, size: 0x8, addend: 0x0, symName: __ZNKSt3__15ctypeIcE5widenB7v160006Ec, symObjAddr: 0x20E4, symBinAddr: 0x100003A30, symSize: 0x38 }
  - { offsetInCU: 0xAD4C, offset: 0xAD4C, size: 0x8, addend: 0x0, symName: __ZNSt3__18ios_base8setstateB7v160006Ej, symObjAddr: 0x211C, symBinAddr: 0x100003A68, symSize: 0x34 }
...
